#include <math.h>
#include <stdio.h>
#include <stdlib.h>
#include <string.h>

int main(){
	int n,i,j,s=2,count=0;
	scanf("%d",&n);
	for(i=3;i<=n;i++){
		for(j=2;j<i;j++){
			if(i%j==0){
				break;	
			}
		}	
		if(j==i){
			count++;
			if((i-s)==2){
				printf("%d %d\n",s,i);	
			}	
			s=i;
		}
	}	
	if((count==0)||n==3||n==4){
		printf("empty");	
	}
	return 0;
}